; Function Attrs: mustprogress nounwind uwtable
define internal void @_ZN6google8protobuf12_GLOBAL__N_124FieldValuePrinterWrapperD2Ev(ptr nocapture noundef nonnull align 8 dereferenceable(16) %this) unnamed_addr #5 align 2 personality ptr @__gxx_personality_v0 {
entry:
  store ptr getelementptr inbounds ({ [19 x ptr] }, ptr @_ZTVN6google8protobuf12_GLOBAL__N_124FieldValuePrinterWrapperE, i64 0, i32 0, i64 2), ptr %this, align 8
  %delegate_ = getelementptr inbounds i8, ptr %this, i64 8
  %0 = load ptr, ptr %delegate_, align 8
  %cmp.not.i = icmp eq ptr %0, null
  br i1 %cmp.not.i, label %_ZNSt10unique_ptrIKN6google8protobuf10TextFormat17FieldValuePrinterESt14default_deleteIS4_EED2Ev.exit, label %_ZNKSt14default_deleteIKN6google8protobuf10TextFormat17FieldValuePrinterEEclEPS4_.exit.i

_ZNKSt14default_deleteIKN6google8protobuf10TextFormat17FieldValuePrinterEEclEPS4_.exit.i: ; preds = %entry
  %vtable.i.i = load ptr, ptr %0, align 8
  %vfn.i.i = getelementptr inbounds i8, ptr %vtable.i.i, i64 8
  %1 = load ptr, ptr %vfn.i.i, align 8
  tail call void %1(ptr noundef nonnull align 8 dereferenceable(16) %0) #34
  br label %_ZNSt10unique_ptrIKN6google8protobuf10TextFormat17FieldValuePrinterESt14default_deleteIS4_EED2Ev.exit

_ZNSt10unique_ptrIKN6google8protobuf10TextFormat17FieldValuePrinterESt14default_deleteIS4_EED2Ev.exit: ; preds = %entry, %_ZNKSt14default_deleteIKN6google8protobuf10TextFormat17FieldValuePrinterEEclEPS4_.exit.i
  store ptr null, ptr %delegate_, align 8
  ret void
}